# SymbolsHelper-Confirmed: 4:15.12 amd64
libKF5Gravatar.so.5 libkf5gravatar5 #MINVER#
 _ZN8Gravatar13GravatarCache11qt_metacallEN11QMetaObject4CallEiPPv@Base 4:15.12
 _ZN8Gravatar13GravatarCache11qt_metacastEPKc@Base 4:15.12
 _ZN8Gravatar13GravatarCache13clearAllCacheEv@Base 4:15.12
 _ZN8Gravatar13GravatarCache14setMaximumSizeEi@Base 4:15.12
 _ZN8Gravatar13GravatarCache16staticMetaObjectE@Base 4:15.12
 _ZN8Gravatar13GravatarCache18loadGravatarPixmapERK7QStringRb@Base 4:15.12
 _ZN8Gravatar13GravatarCache18saveGravatarPixmapERK7QStringRK7QPixmap@Base 4:15.12
 _ZN8Gravatar13GravatarCache4selfEv@Base 4:15.12
 _ZN8Gravatar13GravatarCache5clearEv@Base 4:15.12
 _ZN8Gravatar13GravatarCacheC1Ev@Base 4:15.12
 _ZN8Gravatar13GravatarCacheC2Ev@Base 4:15.12
 _ZN8Gravatar13GravatarCacheD0Ev@Base 4:15.12
 _ZN8Gravatar13GravatarCacheD1Ev@Base 4:15.12
 _ZN8Gravatar13GravatarCacheD2Ev@Base 4:15.12
 _ZN8Gravatar16GravatarSettings4selfEv@Base 4:15.12
 _ZN8Gravatar16GravatarSettingsC1Ev@Base 4:15.12
 _ZN8Gravatar16GravatarSettingsC2Ev@Base 4:15.12
 _ZN8Gravatar16GravatarSettingsD0Ev@Base 4:15.12
 _ZN8Gravatar16GravatarSettingsD1Ev@Base 4:15.12
 _ZN8Gravatar16GravatarSettingsD2Ev@Base 4:15.12
 _ZN8Gravatar20GravatarConfigWidget11qt_metacallEN11QMetaObject4CallEiPPv@Base 4:15.12
 _ZN8Gravatar20GravatarConfigWidget11qt_metacastEPKc@Base 4:15.12
 _ZN8Gravatar20GravatarConfigWidget13configChangedEb@Base 4:15.12
 _ZN8Gravatar20GravatarConfigWidget16staticMetaObjectE@Base 4:15.12
 _ZN8Gravatar20GravatarConfigWidget17updateWidgetStateEb@Base 4:15.12
 _ZN8Gravatar20GravatarConfigWidget21slotConfigureSettingsEv@Base 4:15.12
 _ZN8Gravatar20GravatarConfigWidget22doResetToDefaultsOtherEv@Base 4:15.12
 _ZN8Gravatar20GravatarConfigWidget24doLoadFromGlobalSettingsEv@Base 4:15.12
 _ZN8Gravatar20GravatarConfigWidget25slotGravatarEnableChangedEb@Base 4:15.12
 _ZN8Gravatar20GravatarConfigWidget4saveEv@Base 4:15.12
 _ZN8Gravatar20GravatarConfigWidgetC1EP7QWidget@Base 4:15.12
 _ZN8Gravatar20GravatarConfigWidgetC2EP7QWidget@Base 4:15.12
 _ZN8Gravatar20GravatarConfigWidgetD0Ev@Base 4:15.12
 _ZN8Gravatar20GravatarConfigWidgetD1Ev@Base 4:15.12
 _ZN8Gravatar20GravatarConfigWidgetD2Ev@Base 4:15.12
 _ZN8Gravatar20GravatarResolvUrlJob11qt_metacallEN11QMetaObject4CallEiPPv@Base 4:15.12
 _ZN8Gravatar20GravatarResolvUrlJob11qt_metacastEPKc@Base 4:15.12
 _ZN8Gravatar20GravatarResolvUrlJob11setUseCacheEb@Base 4:15.12
 _ZN8Gravatar20GravatarResolvUrlJob11setUseHttpsEb@Base 4:15.12
 _ZN8Gravatar20GravatarResolvUrlJob13calculateHashEb@Base 4:15.12
 _ZN8Gravatar20GravatarResolvUrlJob16setUseLibravatarEb@Base 4:15.12
 _ZN8Gravatar20GravatarResolvUrlJob16staticMetaObjectE@Base 4:15.12
 _ZN8Gravatar20GravatarResolvUrlJob19generateGravatarUrlEb@Base 4:15.12
 _ZN8Gravatar20GravatarResolvUrlJob19setFallbackGravatarEb@Base 4:15.12
 _ZN8Gravatar20GravatarResolvUrlJob19setUseDefaultPixmapEb@Base 4:15.12
 _ZN8Gravatar20GravatarResolvUrlJob19startNetworkManagerERK4QUrl@Base 4:15.12
 _ZN8Gravatar20GravatarResolvUrlJob20slotFinishLoadPixmapEP13QNetworkReply@Base 4:15.12
 _ZN8Gravatar20GravatarResolvUrlJob5startEv@Base 4:15.12
 _ZN8Gravatar20GravatarResolvUrlJob7setSizeEi@Base 4:15.12
 _ZN8Gravatar20GravatarResolvUrlJob8finishedEPS0_@Base 4:15.12
 _ZN8Gravatar20GravatarResolvUrlJob8setEmailERK7QString@Base 4:15.12
 _ZN8Gravatar20GravatarResolvUrlJob9createUrlEb@Base 4:15.12
 _ZN8Gravatar20GravatarResolvUrlJob9resolvUrlERK4QUrl@Base 4:15.12
 _ZN8Gravatar20GravatarResolvUrlJob9slotErrorEN13QNetworkReply12NetworkErrorE@Base 4:15.12
 _ZN8Gravatar20GravatarResolvUrlJobC1EP7QObject@Base 4:15.12
 _ZN8Gravatar20GravatarResolvUrlJobC2EP7QObject@Base 4:15.12
 _ZN8Gravatar20GravatarResolvUrlJobD0Ev@Base 4:15.12
 _ZN8Gravatar20GravatarResolvUrlJobD1Ev@Base 4:15.12
 _ZN8Gravatar20GravatarResolvUrlJobD2Ev@Base 4:15.12
 _ZN8Gravatar28GravatarDownloadPixmapDialog11qt_metacallEN11QMetaObject4CallEiPPv@Base 4:15.12
 _ZN8Gravatar28GravatarDownloadPixmapDialog11qt_metacastEPKc@Base 4:15.12
 _ZN8Gravatar28GravatarDownloadPixmapDialog12slotAcceptedEv@Base 4:15.12
 _ZN8Gravatar28GravatarDownloadPixmapDialog16staticMetaObjectE@Base 4:15.12
 _ZN8Gravatar28GravatarDownloadPixmapDialogC1EP7QWidget@Base 4:15.12
 _ZN8Gravatar28GravatarDownloadPixmapDialogC2EP7QWidget@Base 4:15.12
 _ZN8Gravatar28GravatarDownloadPixmapDialogD0Ev@Base 4:15.12
 _ZN8Gravatar28GravatarDownloadPixmapDialogD1Ev@Base 4:15.12
 _ZN8Gravatar28GravatarDownloadPixmapDialogD2Ev@Base 4:15.12
 _ZN8Gravatar28GravatarDownloadPixmapWidget11qt_metacallEN11QMetaObject4CallEiPPv@Base 4:15.12
 _ZN8Gravatar28GravatarDownloadPixmapWidget11qt_metacastEPKc@Base 4:15.12
 _ZN8Gravatar28GravatarDownloadPixmapWidget15slotTextChangedERK7QString@Base 4:15.12
 _ZN8Gravatar28GravatarDownloadPixmapWidget16slotSearchButtonEv@Base 4:15.12
 _ZN8Gravatar28GravatarDownloadPixmapWidget16staticMetaObjectE@Base 4:15.12
 _ZN8Gravatar28GravatarDownloadPixmapWidget19slotResolvUrlFinishEPNS_20GravatarResolvUrlJobE@Base 4:15.12
 _ZN8Gravatar28GravatarDownloadPixmapWidgetC1EP7QWidget@Base 4:15.12
 _ZN8Gravatar28GravatarDownloadPixmapWidgetC2EP7QWidget@Base 4:15.12
 _ZN8Gravatar28GravatarDownloadPixmapWidgetD0Ev@Base 4:15.12
 _ZN8Gravatar28GravatarDownloadPixmapWidgetD1Ev@Base 4:15.12
 _ZN8Gravatar28GravatarDownloadPixmapWidgetD2Ev@Base 4:15.12
 _ZN8Gravatar31GravatarConfigureSettingsDialog11qt_metacallEN11QMetaObject4CallEiPPv@Base 4:15.12
 _ZN8Gravatar31GravatarConfigureSettingsDialog11qt_metacastEPKc@Base 4:15.12
 _ZN8Gravatar31GravatarConfigureSettingsDialog16staticMetaObjectE@Base 4:15.12
 _ZN8Gravatar31GravatarConfigureSettingsDialog18slotRestoreDefaultEv@Base 4:15.12
 _ZN8Gravatar31GravatarConfigureSettingsDialog22slotClearGravatarCacheEv@Base 4:15.12
 _ZN8Gravatar31GravatarConfigureSettingsDialog4loadEv@Base 4:15.12
 _ZN8Gravatar31GravatarConfigureSettingsDialog4saveEv@Base 4:15.12
 _ZN8Gravatar31GravatarConfigureSettingsDialogC1EP7QWidget@Base 4:15.12
 _ZN8Gravatar31GravatarConfigureSettingsDialogC2EP7QWidget@Base 4:15.12
 _ZN8Gravatar31GravatarConfigureSettingsDialogD0Ev@Base 4:15.12
 _ZN8Gravatar31GravatarConfigureSettingsDialogD1Ev@Base 4:15.12
 _ZN8Gravatar31GravatarConfigureSettingsDialogD2Ev@Base 4:15.12
 _ZNK8Gravatar13GravatarCache10metaObjectEv@Base 4:15.12
 _ZNK8Gravatar13GravatarCache11maximumSizeEv@Base 4:15.12
 _ZNK8Gravatar20GravatarConfigWidget10metaObjectEv@Base 4:15.12
 _ZNK8Gravatar20GravatarResolvUrlJob10metaObjectEv@Base 4:15.12
 _ZNK8Gravatar20GravatarResolvUrlJob11hasGravatarEv@Base 4:15.12
 _ZNK8Gravatar20GravatarResolvUrlJob13useLibravatarEv@Base 4:15.12
 _ZNK8Gravatar20GravatarResolvUrlJob14calculatedHashEv@Base 4:15.12
 _ZNK8Gravatar20GravatarResolvUrlJob16fallbackGravatarEv@Base 4:15.12
 _ZNK8Gravatar20GravatarResolvUrlJob16useDefaultPixmapEv@Base 4:15.12
 _ZNK8Gravatar20GravatarResolvUrlJob4sizeEv@Base 4:15.12
 _ZNK8Gravatar20GravatarResolvUrlJob5emailEv@Base 4:15.12
 _ZNK8Gravatar20GravatarResolvUrlJob6pixmapEv@Base 4:15.12
 _ZNK8Gravatar20GravatarResolvUrlJob8canStartEv@Base 4:15.12
 _ZNK8Gravatar20GravatarResolvUrlJob8useCacheEv@Base 4:15.12
 _ZNK8Gravatar20GravatarResolvUrlJob8useHttpsEv@Base 4:15.12
 _ZNK8Gravatar28GravatarDownloadPixmapDialog10metaObjectEv@Base 4:15.12
 _ZNK8Gravatar28GravatarDownloadPixmapDialog14gravatarPixmapEv@Base 4:15.12
 _ZNK8Gravatar28GravatarDownloadPixmapWidget10metaObjectEv@Base 4:15.12
 _ZNK8Gravatar28GravatarDownloadPixmapWidget14gravatarPixmapEv@Base 4:15.12
 _ZNK8Gravatar31GravatarConfigureSettingsDialog10metaObjectEv@Base 4:15.12
 _ZTIN8Gravatar13GravatarCacheE@Base 4:15.12
 _ZTIN8Gravatar16GravatarSettingsE@Base 4:15.12
 _ZTIN8Gravatar20GravatarConfigWidgetE@Base 4:15.12
 _ZTIN8Gravatar20GravatarResolvUrlJobE@Base 4:15.12
 _ZTIN8Gravatar28GravatarDownloadPixmapDialogE@Base 4:15.12
 _ZTIN8Gravatar28GravatarDownloadPixmapWidgetE@Base 4:15.12
 _ZTIN8Gravatar31GravatarConfigureSettingsDialogE@Base 4:15.12
 _ZTSN8Gravatar13GravatarCacheE@Base 4:15.12
 _ZTSN8Gravatar16GravatarSettingsE@Base 4:15.12
 _ZTSN8Gravatar20GravatarConfigWidgetE@Base 4:15.12
 _ZTSN8Gravatar20GravatarResolvUrlJobE@Base 4:15.12
 _ZTSN8Gravatar28GravatarDownloadPixmapDialogE@Base 4:15.12
 _ZTSN8Gravatar28GravatarDownloadPixmapWidgetE@Base 4:15.12
 _ZTSN8Gravatar31GravatarConfigureSettingsDialogE@Base 4:15.12
 _ZTVN8Gravatar13GravatarCacheE@Base 4:15.12
 _ZTVN8Gravatar16GravatarSettingsE@Base 4:15.12
 _ZTVN8Gravatar20GravatarConfigWidgetE@Base 4:15.12
 _ZTVN8Gravatar20GravatarResolvUrlJobE@Base 4:15.12
 _ZTVN8Gravatar28GravatarDownloadPixmapDialogE@Base 4:15.12
 _ZTVN8Gravatar28GravatarDownloadPixmapWidgetE@Base 4:15.12
 _ZTVN8Gravatar31GravatarConfigureSettingsDialogE@Base 4:15.12
 (c++)"non-virtual thunk to Gravatar::GravatarConfigWidget::~GravatarConfigWidget()@Base" 4:15.12
 (c++)"non-virtual thunk to Gravatar::GravatarConfigureSettingsDialog::~GravatarConfigureSettingsDialog()@Base" 4:15.12
 (c++)"non-virtual thunk to Gravatar::GravatarDownloadPixmapDialog::~GravatarDownloadPixmapDialog()@Base" 4:15.12
 (c++)"non-virtual thunk to Gravatar::GravatarDownloadPixmapWidget::~GravatarDownloadPixmapWidget()@Base" 4:15.12
